target datalayout = "e-m:e-p270:32:32-p271:32:32-p272:64:64-i64:64-i128:128-f80:128-n8:16:32:64-S128"
target triple = "x86_64-pc-linux-gnu"

; Function Attrs: inlinehint mustprogress nounwind uwtable
define linkonce_odr hidden void @_ZN5o3dgc4swapIlEEvRT_S2_(ptr noundef nonnull align 8 dereferenceable(8) %0, ptr noundef nonnull align 8 dereferenceable(8) %1) #3 comdat {
  %3 = alloca ptr, align 8
  %4 = alloca ptr, align 8
  %5 = alloca i64, align 8
  store ptr %0, ptr %3, align 8
  store ptr %1, ptr %4, align 8
  call void @llvm.lifetime.start.p0(i64 8, ptr %5) #11
  %6 = load ptr, ptr %3, align 8
  %7 = load i64, ptr %6, align 8
  store i64 %7, ptr %5, align 8
  %8 = load ptr, ptr %4, align 8
  %9 = load i64, ptr %8, align 8
  %10 = load ptr, ptr %3, align 8
  store i64 %9, ptr %10, align 8
  %11 = load i64, ptr %5, align 8
  %12 = load ptr, ptr %4, align 8
  store i64 %11, ptr %12, align 8
  call void @llvm.lifetime.end.p0(i64 8, ptr %5) #11
  ret void
}

; Function Attrs: mustprogress uwtable
define hidden noundef i32 @_ZN5o3dgc5MergeEPll(ptr noundef %0, i64 noundef %1) #2 {
  %3 = alloca ptr, align 8
  %4 = alloca i64, align 8
  %5 = alloca i64, align 8
  %6 = alloca i64, align 8
  %7 = alloca i64, align 8
  %8 = alloca i64, align 8
  store ptr %0, ptr %3, align 8
  store i64 %1, ptr %4, align 8
  call void @llvm.lifetime.start.p0(i64 8, ptr %5) #11
  %9 = load i64, ptr %4, align 8
  %10 = ashr i64 %9, 1
  %11 = load i64, ptr %4, align 8
  %12 = and i64 %11, 1
  %13 = add nsw i64 %10, %12
  store i64 %13, ptr %5, align 8
  call void @llvm.lifetime.start.p0(i64 8, ptr %6) #11
  %14 = load i64, ptr %5, align 8
  %15 = sub nsw i64 %14, 1
  store i64 %15, ptr %6, align 8
  call void @llvm.lifetime.start.p0(i64 8, ptr %7) #11
  %16 = load i64, ptr %5, align 8
  store i64 %16, ptr %7, align 8
  br label %17

17:                                               ; preds = %38, %2
  %18 = load i64, ptr %6, align 8
  %19 = icmp sgt i64 %18, 0
  br i1 %19, label %20, label %43

20:                                               ; preds = %17
  call void @llvm.lifetime.start.p0(i64 8, ptr %8) #11
  %21 = load i64, ptr %6, align 8
  store i64 %21, ptr %8, align 8
  br label %22

22:                                               ; preds = %35, %20
  %23 = load i64, ptr %8, align 8
  %24 = load i64, ptr %7, align 8
  %25 = icmp slt i64 %23, %24
  br i1 %25, label %27, label %26

26:                                               ; preds = %22
  call void @llvm.lifetime.end.p0(i64 8, ptr %8) #11
  br label %38

27:                                               ; preds = %22
  %28 = load ptr, ptr %3, align 8
  %29 = load i64, ptr %8, align 8
  %30 = getelementptr inbounds i64, ptr %28, i64 %29
  %31 = load ptr, ptr %3, align 8
  %32 = load i64, ptr %8, align 8
  %33 = add nsw i64 %32, 1
  %34 = getelementptr inbounds i64, ptr %31, i64 %33
  call void @_ZN5o3dgc4swapIlEEvRT_S2_(ptr noundef nonnull align 8 dereferenceable(8) %30, ptr noundef nonnull align 8 dereferenceable(8) %34)
  br label %35

35:                                               ; preds = %27
  %36 = load i64, ptr %8, align 8
  %37 = add nsw i64 %36, 2
  store i64 %37, ptr %8, align 8
  br label %22, !llvm.loop !6

38:                                               ; preds = %26
  %39 = load i64, ptr %6, align 8
  %40 = add nsw i64 %39, -1
  store i64 %40, ptr %6, align 8
  %41 = load i64, ptr %7, align 8
  %42 = add nsw i64 %41, 1
  store i64 %42, ptr %7, align 8
  br label %17, !llvm.loop !7

43:                                               ; preds = %17
  call void @llvm.lifetime.end.p0(i64 8, ptr %7) #11
  call void @llvm.lifetime.end.p0(i64 8, ptr %6) #11
  call void @llvm.lifetime.end.p0(i64 8, ptr %5) #11
  ret i32 0
}