; Function Attrs: mustprogress nofree norecurse nosync nounwind memory(argmem: readwrite) uwtable
define hidden noundef i32 @_ZN5o3dgc5MergeEPll(ptr noundef captures(none) %0, i64 noundef %1) local_unnamed_addr #0 {
  %3 = ashr i64 %1, 1
  %4 = and i64 %1, 1
  %5 = add nsw i64 %3, %4
  %6 = icmp sgt i64 %5, 1
  br i1 %6, label %.preheader, label %._crit_edge20

.preheader:                                       ; preds = %2, %._crit_edge
  %.01519.in = phi i64 [ %.01519, %._crit_edge ], [ %5, %2 ]
  %.01418 = phi i64 [ %7, %._crit_edge ], [ %5, %2 ]
  %.01519 = add nsw i64 %.01519.in, -1
  %.not = icmp sgt i64 %.01519.in, %.01418
  br i1 %.not, label %._crit_edge, label %.lr.ph

._crit_edge:                                      ; preds = %.lr.ph, %.preheader
  %7 = add nuw nsw i64 %.01418, 1
  %8 = icmp sgt i64 %.01519.in, 2
  br i1 %8, label %.preheader, label %._crit_edge20, !llvm.loop !6

.lr.ph:                                           ; preds = %.preheader, %.lr.ph
  %.016 = phi i64 [ %13, %.lr.ph ], [ %.01519, %.preheader ]
  %9 = getelementptr inbounds i64, ptr %0, i64 %.016
  %10 = getelementptr i8, ptr %9, i64 8
  %11 = load i64, ptr %9, align 8
  %12 = load i64, ptr %10, align 8
  store i64 %12, ptr %9, align 8
  store i64 %11, ptr %10, align 8
  %13 = add nsw i64 %.016, 2
  %14 = icmp slt i64 %13, %.01418
  br i1 %14, label %.lr.ph, label %._crit_edge, !llvm.loop !7

._crit_edge20:                                    ; preds = %._crit_edge, %2
  ret i32 0
}